; Function Attrs: inlinehint mustprogress nounwind uwtable
define internal void @_ZN9grpc_core12_GLOBAL__N_16GrpcLb27NullLbTokenEndpointIteratorD2Ev(ptr noundef nonnull readonly align 8 captures(none) dereferenceable(32) %0) unnamed_addr #16 align 2 personality ptr @__gxx_personality_v0 {
  %2 = getelementptr inbounds nuw i8, ptr %0, i64 24
  %.val = load ptr, ptr %2, align 8, !tbaa !255
  %.not.i = icmp eq ptr %.val, null
  br i1 %.not.i, label %_ZN9grpc_core13RefCountedPtrINS_12_GLOBAL__N_16GrpcLb22TokenAndClientStatsArgEED2Ev.exit, label %3

3:                                                ; preds = %1
  %4 = getelementptr inbounds nuw i8, ptr %.val, i64 8
  %5 = atomicrmw sub ptr %4, i64 1 acq_rel, align 8
  %6 = icmp eq i64 %5, 1
  br i1 %6, label %7, label %_ZN9grpc_core13RefCountedPtrINS_12_GLOBAL__N_16GrpcLb22TokenAndClientStatsArgEED2Ev.exit, !prof !74

7:                                                ; preds = %3
  tail call fastcc void @_ZNK9grpc_core11UnrefDeleteclIKNS_12_GLOBAL__N_16GrpcLb22TokenAndClientStatsArgEEEvPT_(ptr noundef nonnull align 8 dereferenceable(16) %.val)
  br label %_ZN9grpc_core13RefCountedPtrINS_12_GLOBAL__N_16GrpcLb22TokenAndClientStatsArgEED2Ev.exit

_ZN9grpc_core13RefCountedPtrINS_12_GLOBAL__N_16GrpcLb22TokenAndClientStatsArgEED2Ev.exit: ; preds = %1, %3, %7
  %8 = getelementptr inbounds nuw i8, ptr %0, i64 16
  %9 = load ptr, ptr %8, align 8, !tbaa !130
  %.not.i.i = icmp eq ptr %9, null
  br i1 %.not.i.i, label %_ZNSt12__shared_ptrIN9grpc_core25EndpointAddressesIteratorELN9__gnu_cxx12_Lock_policyE2EED2Ev.exit, label %10

10:                                               ; preds = %_ZN9grpc_core13RefCountedPtrINS_12_GLOBAL__N_16GrpcLb22TokenAndClientStatsArgEED2Ev.exit
  %11 = getelementptr inbounds nuw i8, ptr %9, i64 8
  %12 = load atomic i64, ptr %11 acquire, align 8
  %13 = icmp eq i64 %12, 4294967297
  %14 = trunc i64 %12 to i32
  br i1 %13, label %15, label %23

15:                                               ; preds = %10
  store i32 0, ptr %11, align 8, !tbaa !133
  %16 = getelementptr inbounds nuw i8, ptr %9, i64 12
  store i32 0, ptr %16, align 4, !tbaa !135
  %17 = load ptr, ptr %9, align 8, !tbaa !6
  %18 = getelementptr inbounds nuw i8, ptr %17, i64 16
  %19 = load ptr, ptr %18, align 8
  tail call void %19(ptr noundef nonnull align 8 dereferenceable(16) %9) #42
  %20 = load ptr, ptr %9, align 8, !tbaa !6
  %21 = getelementptr inbounds nuw i8, ptr %20, i64 24
  %22 = load ptr, ptr %21, align 8
  tail call void %22(ptr noundef nonnull align 8 dereferenceable(16) %9) #42
  br label %_ZNSt12__shared_ptrIN9grpc_core25EndpointAddressesIteratorELN9__gnu_cxx12_Lock_policyE2EED2Ev.exit

23:                                               ; preds = %10
  %24 = load i8, ptr @__libc_single_threaded, align 1, !tbaa !36
  %.not.i.i.i = icmp eq i8 %24, 0
  br i1 %.not.i.i.i, label %27, label %25

25:                                               ; preds = %23
  %26 = add nsw i32 %14, -1
  store i32 %26, ptr %11, align 4, !tbaa !26
  br label %_ZN9__gnu_cxx27__exchange_and_add_dispatchEPii.exit.i.i.i

27:                                               ; preds = %23
  %28 = atomicrmw volatile add ptr %11, i32 -1 acq_rel, align 4
  br label %_ZN9__gnu_cxx27__exchange_and_add_dispatchEPii.exit.i.i.i

_ZN9__gnu_cxx27__exchange_and_add_dispatchEPii.exit.i.i.i: ; preds = %27, %25
  %.0.i.i.i.i = phi i32 [ %14, %25 ], [ %28, %27 ]
  %29 = icmp eq i32 %.0.i.i.i.i, 1
  br i1 %29, label %30, label %_ZNSt12__shared_ptrIN9grpc_core25EndpointAddressesIteratorELN9__gnu_cxx12_Lock_policyE2EED2Ev.exit, !prof !74

30:                                               ; preds = %_ZN9__gnu_cxx27__exchange_and_add_dispatchEPii.exit.i.i.i
  tail call void @_ZNSt16_Sp_counted_baseILN9__gnu_cxx12_Lock_policyE2EE24_M_release_last_use_coldEv(ptr noundef nonnull align 8 dereferenceable(16) %9) #42
  br label %_ZNSt12__shared_ptrIN9grpc_core25EndpointAddressesIteratorELN9__gnu_cxx12_Lock_policyE2EED2Ev.exit

_ZNSt12__shared_ptrIN9grpc_core25EndpointAddressesIteratorELN9__gnu_cxx12_Lock_policyE2EED2Ev.exit: ; preds = %_ZN9grpc_core13RefCountedPtrINS_12_GLOBAL__N_16GrpcLb22TokenAndClientStatsArgEED2Ev.exit, %15, %_ZN9__gnu_cxx27__exchange_and_add_dispatchEPii.exit.i.i.i, %30
  ret void
}